target datalayout = "e-m:e-p270:32:32-p271:32:32-p272:64:64-i64:64-i128:128-f80:128-n8:16:32:64-S128"
target triple = "x86_64-pc-linux-gnu"

%"class.clang::SourceLocation" = type { i32 }
%"class.clang::CXXScopeSpec" = type { %"class.clang::SourceRange", %"class.clang::NestedNameSpecifierLocBuilder", %"class.llvm::ArrayRef" }
%"class.clang::SourceRange" = type { %"class.clang::SourceLocation", %"class.clang::SourceLocation" }
%"class.clang::NestedNameSpecifierLocBuilder" = type { ptr, ptr, i32, i32 }
%"class.llvm::ArrayRef" = type { ptr, i64 }
%"class.clang::ParsedAttributesView" = type { %"class.clang::SourceRange", %"class.llvm::SmallVector.342" }
%"class.llvm::SmallVector.342" = type { %"class.llvm::SmallVectorImpl.343", %"struct.llvm::SmallVectorStorage.346" }
%"class.llvm::SmallVectorImpl.343" = type { %"class.llvm::SmallVectorTemplateBase.344" }
%"class.llvm::SmallVectorTemplateBase.344" = type { %"class.llvm::SmallVectorTemplateCommon.345" }
%"class.llvm::SmallVectorTemplateCommon.345" = type { %"class.llvm::SmallVectorBase" }
%"class.llvm::SmallVectorBase" = type { ptr, i32, i32 }
%"struct.llvm::SmallVectorStorage.346" = type { [48 x i8] }
%"struct.clang::UnionOpaquePtr" = type { ptr }
%"class.clang::ParsedAttributes" = type { %"class.clang::ParsedAttributesView", %"class.clang::AttributePool" }
%"class.clang::AttributePool" = type { ptr, %"class.llvm::SmallVector.342" }
%"class.clang::DeclSpec" = type { i64, %union.anon.349, ptr, %"class.clang::ExplicitSpecifier", %"class.clang::ParsedAttributes", %"class.clang::CXXScopeSpec", %"class.clang::SourceRange", %"class.clang::SourceLocation", %"class.clang::SourceLocation", %"class.clang::SourceRange", %"class.clang::SourceLocation", %"class.clang::SourceLocation", %"class.clang::SourceLocation", %"class.clang::SourceLocation", %"class.clang::SourceLocation", %"class.clang::SourceLocation", %"class.clang::SourceLocation", %"class.clang::SourceRange", %"class.clang::SourceLocation", %"class.clang::SourceLocation", %"class.clang::SourceLocation", %"class.clang::SourceLocation", %"class.clang::SourceLocation", %"class.clang::SourceLocation", %"class.clang::SourceLocation", %"class.clang::SourceLocation", %"class.clang::SourceLocation", %"class.clang::SourceLocation", %"class.clang::SourceLocation", %"class.clang::SourceLocation", %"class.clang::SourceLocation", %"class.clang::SourceLocation", %"class.clang::SourceLocation", %"struct.clang::WrittenBuiltinSpecs", ptr }
%union.anon.349 = type { %"struct.clang::UnionOpaquePtr" }
%"class.clang::ExplicitSpecifier" = type { %"class.llvm::PointerIntPair.350" }
%"class.llvm::PointerIntPair.350" = type { %"struct.llvm::detail::PunnedPointer.351" }
%"struct.llvm::detail::PunnedPointer.351" = type { [8 x i8] }
%"struct.clang::WrittenBuiltinSpecs" = type { i16, [2 x i8] }
%class.anon.1212 = type { i32 }

; Function Attrs: mustprogress nounwind uwtable
define linkonce_odr hidden noundef zeroext i1 @_ZNK5clang20ParsedAttributesView12hasAttributeENS_19AttributeCommonInfo4KindE(ptr noundef nonnull align 8 dereferenceable(72) %0, i32 noundef %1) #0 comdat align 2 {
  %3 = alloca ptr, align 8
  %4 = alloca i32, align 4
  %5 = alloca %class.anon.1212, align 4
  store ptr %0, ptr %3, align 8
  store i32 %1, ptr %4, align 4
  %6 = load ptr, ptr %3, align 8
  %7 = getelementptr inbounds nuw %"class.clang::ParsedAttributesView", ptr %6, i32 0, i32 1
  %8 = getelementptr inbounds nuw %class.anon.1212, ptr %5, i32 0, i32 0
  %9 = load i32, ptr %4, align 4
  store i32 %9, ptr %8, align 4
  %10 = getelementptr inbounds nuw %class.anon.1212, ptr %5, i32 0, i32 0
  %11 = load i32, ptr %10, align 4
  %12 = call noundef zeroext i1 @_ZN4llvm6any_ofIRKNS_11SmallVectorIPN5clang10ParsedAttrELj6EEEZNKS2_20ParsedAttributesView12hasAttributeENS2_19AttributeCommonInfo4KindEEUlPKS3_E_EEbOT_T0_(ptr noundef nonnull align 8 dereferenceable(64) %7, i32 %11)
  ret i1 %12
}

; Function Attrs: mustprogress nounwind uwtable
define linkonce_odr hidden noundef nonnull align 8 dereferenceable(144) ptr @_ZN5clang8DeclSpec13getAttributesEv(ptr noundef nonnull align 8 dereferenceable(360) %0) #0 comdat align 2 {
  %2 = alloca ptr, align 8
  store ptr %0, ptr %2, align 8
  %3 = load ptr, ptr %2, align 8
  %4 = getelementptr inbounds nuw %"class.clang::DeclSpec", ptr %3, i32 0, i32 4
  ret ptr %4
}

; Function Attrs: mustprogress nounwind uwtable
define linkonce_odr hidden noundef i32 @_ZNK5clang8DeclSpec15getTypeSpecTypeEv(ptr noundef nonnull align 8 dereferenceable(360) %0) #0 comdat align 2 {
  %2 = alloca ptr, align 8
  store ptr %0, ptr %2, align 8
  %3 = load ptr, ptr %2, align 8
  %4 = load i64, ptr %3, align 8
  %5 = lshr i64 %4, 12
  %6 = and i64 %5, 127
  %7 = trunc i64 %6 to i32
  ret i32 %7
}

; Function Attrs: mustprogress nounwind uwtable
define linkonce_odr hidden noundef i32 @_ZNK5clang8DeclSpec16getTypeSpecWidthEv(ptr noundef nonnull align 8 dereferenceable(360) %0) #0 comdat align 2 {
  %2 = alloca ptr, align 8
  store ptr %0, ptr %2, align 8
  %3 = load ptr, ptr %2, align 8
  %4 = load i64, ptr %3, align 8
  %5 = lshr i64 %4, 6
  %6 = and i64 %5, 3
  %7 = trunc i64 %6 to i32
  ret i32 %7
}

; Function Attrs: mustprogress nounwind uwtable
define linkonce_odr hidden noundef i32 @_ZNK5clang8DeclSpec15getTypeSpecSignEv(ptr noundef nonnull align 8 dereferenceable(360) %0) #0 comdat align 2 {
  %2 = alloca ptr, align 8
  store ptr %0, ptr %2, align 8
  %3 = load ptr, ptr %2, align 8
  %4 = load i64, ptr %3, align 8
  %5 = lshr i64 %4, 10
  %6 = and i64 %5, 3
  %7 = trunc i64 %6 to i32
  ret i32 %7
}

; Function Attrs: mustprogress nounwind uwtable
define dso_local void @_ZN5clang8DeclSpec23SaveWrittenBuiltinSpecsEv(ptr noundef nonnull align 8 dereferenceable(360) %0) #0 align 2 {
  %2 = alloca ptr, align 8
  store ptr %0, ptr %2, align 8
  %3 = load ptr, ptr %2, align 8
  %4 = call noundef i32 @_ZNK5clang8DeclSpec15getTypeSpecSignEv(ptr noundef nonnull align 8 dereferenceable(360) %3)
  %5 = getelementptr inbounds nuw %"class.clang::DeclSpec", ptr %3, i32 0, i32 33
  %6 = trunc i32 %4 to i16
  %7 = load i16, ptr %5, align 8
  %8 = and i16 %6, 3
  %9 = shl i16 %8, 7
  %10 = and i16 %7, -385
  %11 = or i16 %10, %9
  store i16 %11, ptr %5, align 8
  %12 = call noundef i32 @_ZNK5clang8DeclSpec16getTypeSpecWidthEv(ptr noundef nonnull align 8 dereferenceable(360) %3)
  %13 = getelementptr inbounds nuw %"class.clang::DeclSpec", ptr %3, i32 0, i32 33
  %14 = trunc i32 %12 to i16
  %15 = load i16, ptr %13, align 8
  %16 = and i16 %14, 3
  %17 = shl i16 %16, 9
  %18 = and i16 %15, -1537
  %19 = or i16 %18, %17
  store i16 %19, ptr %13, align 8
  %20 = call noundef i32 @_ZNK5clang8DeclSpec15getTypeSpecTypeEv(ptr noundef nonnull align 8 dereferenceable(360) %3)
  %21 = getelementptr inbounds nuw %"class.clang::DeclSpec", ptr %3, i32 0, i32 33
  %22 = trunc i32 %20 to i16
  %23 = load i16, ptr %21, align 8
  %24 = and i16 %22, 127
  %25 = and i16 %23, -128
  %26 = or i16 %25, %24
  store i16 %26, ptr %21, align 8
  %27 = call noundef nonnull align 8 dereferenceable(144) ptr @_ZN5clang8DeclSpec13getAttributesEv(ptr noundef nonnull align 8 dereferenceable(360) %3)
  %28 = call noundef zeroext i1 @_ZNK5clang20ParsedAttributesView12hasAttributeENS_19AttributeCommonInfo4KindE(ptr noundef nonnull align 8 dereferenceable(72) %27, i32 noundef 186)
  %29 = zext i1 %28 to i32
  %30 = getelementptr inbounds nuw %"class.clang::DeclSpec", ptr %3, i32 0, i32 33
  %31 = trunc i32 %29 to i16
  %32 = load i16, ptr %30, align 8
  %33 = and i16 %31, 1
  %34 = shl i16 %33, 11
  %35 = and i16 %32, -2049
  %36 = or i16 %35, %34
  store i16 %36, ptr %30, align 8
  ret void
}