; Function Attrs: mustprogress nounwind uwtable
define dso_local void @_ZN5clang8DeclSpec23SaveWrittenBuiltinSpecsEv(ptr noundef nonnull align 8 dereferenceable(360) %0) local_unnamed_addr #2 align 2 {
  %2 = load i64, ptr %0, align 8
  %3 = getelementptr inbounds nuw i8, ptr %0, i64 344
  %4 = trunc i64 %2 to i16
  %5 = load i16, ptr %3, align 8
  %6 = lshr i16 %4, 3
  %7 = and i16 %6, 384
  %8 = and i16 %5, -2048
  %9 = or disjoint i16 %7, %8
  %10 = shl i16 %4, 3
  %11 = and i16 %10, 1536
  %12 = or disjoint i16 %9, %11
  %13 = lshr i64 %2, 12
  %14 = trunc i64 %13 to i16
  %15 = and i16 %14, 127
  %16 = or disjoint i16 %12, %15
  store i16 %16, ptr %3, align 8
  %17 = getelementptr inbounds i8, ptr %0, i64 40
  %18 = tail call noundef zeroext i1 @_ZN4llvm6any_ofIRKNS_11SmallVectorIPN5clang10ParsedAttrELj6EEEZNKS2_20ParsedAttributesView12hasAttributeENS2_19AttributeCommonInfo4KindEEUlPKS3_E_EEbOT_T0_(ptr noundef nonnull align 8 dereferenceable(64) %17, i32 186)
  %19 = load i16, ptr %3, align 8
  %20 = select i1 %18, i16 2048, i16 0
  %21 = and i16 %19, -2049
  %22 = or disjoint i16 %21, %20
  store i16 %22, ptr %3, align 8
  ret void
}